target datalayout = "e-m:e-p270:32:32-p271:32:32-p272:64:64-i64:64-i128:128-f80:128-n8:16:32:64-S128"
target triple = "x86_64-pc-linux-gnu"

%struct._output_fields = type { i8, i8, i8, i8, i8, ptr, ptr, ptr, ptr, ptr, i8, i8, i8 }

@.str.38 = private unnamed_addr constant [9 x i8] c"_ws.col.\00", align 1

; Function Attrs: null_pointer_is_valid sspstrong uwtable
define void @output_fields_add(ptr noundef %0, ptr noundef %1) #0 {
  %3 = alloca ptr, align 8
  %4 = alloca ptr, align 8
  %5 = alloca ptr, align 8
  store ptr %0, ptr %3, align 8
  store ptr %1, ptr %4, align 8
  call void @llvm.lifetime.start.p0(i64 8, ptr %5) #15
  br label %6

6:                                                ; preds = %2
  br label %7

7:                                                ; preds = %6
  br label %8

8:                                                ; preds = %7
  br label %9

9:                                                ; preds = %8
  br label %10

10:                                               ; preds = %9
  br label %11

11:                                               ; preds = %10
  %12 = load ptr, ptr %3, align 8
  %13 = getelementptr inbounds nuw %struct._output_fields, ptr %12, i32 0, i32 5
  %14 = load ptr, ptr %13, align 8
  %15 = icmp eq ptr null, %14
  br i1 %15, label %16, label %20

16:                                               ; preds = %11
  %17 = call ptr @g_ptr_array_new()
  %18 = load ptr, ptr %3, align 8
  %19 = getelementptr inbounds nuw %struct._output_fields, ptr %18, i32 0, i32 5
  store ptr %17, ptr %19, align 8
  br label %20

20:                                               ; preds = %16, %11
  %21 = load ptr, ptr %4, align 8
  %22 = call noalias ptr @g_strdup(ptr noundef %21)
  store ptr %22, ptr %5, align 8
  %23 = load ptr, ptr %3, align 8
  %24 = getelementptr inbounds nuw %struct._output_fields, ptr %23, i32 0, i32 5
  %25 = load ptr, ptr %24, align 8
  %26 = load ptr, ptr %5, align 8
  call void @g_ptr_array_add(ptr noundef %25, ptr noundef %26)
  %27 = load ptr, ptr %4, align 8
  %28 = call i32 @strncmp(ptr noundef %27, ptr noundef @.str.38, i64 noundef 8) #16
  %29 = icmp ne i32 %28, 0
  br i1 %29, label %33, label %30

30:                                               ; preds = %20
  %31 = load ptr, ptr %3, align 8
  %32 = getelementptr inbounds nuw %struct._output_fields, ptr %31, i32 0, i32 12
  store i8 1, ptr %32, align 2
  br label %33

33:                                               ; preds = %30, %20
  call void @llvm.lifetime.end.p0(i64 8, ptr %5) #15
  ret void
}