; Function Attrs: null_pointer_is_valid sspstrong uwtable
define void @output_fields_add(ptr noundef captures(none) %0, ptr noundef %1) local_unnamed_addr #0 {
  %3 = getelementptr inbounds nuw i8, ptr %0, i64 8
  %4 = load ptr, ptr %3, align 8
  %5 = icmp eq ptr %4, null
  br i1 %5, label %6, label %8

6:                                                ; preds = %2
  %7 = tail call ptr @g_ptr_array_new()
  store ptr %7, ptr %3, align 8
  br label %8

8:                                                ; preds = %6, %2
  %9 = tail call noalias ptr @g_strdup(ptr noundef %1)
  %10 = load ptr, ptr %3, align 8
  tail call void @g_ptr_array_add(ptr noundef %10, ptr noundef %9)
  %11 = tail call i32 @strncmp(ptr noundef %1, ptr noundef nonnull dereferenceable(9) @.str.38, i64 noundef 8) #22
  %.not = icmp eq i32 %11, 0
  br i1 %.not, label %12, label %14

12:                                               ; preds = %8
  %13 = getelementptr inbounds nuw i8, ptr %0, i64 50
  store i8 1, ptr %13, align 2
  br label %14

14:                                               ; preds = %12, %8
  ret void
}